target datalayout = "e-m:e-p270:32:32-p271:32:32-p272:64:64-i64:64-i128:128-f80:128-n8:16:32:64-S128"
target triple = "x86_64-unknown-linux-gnu"

%"class.QuantLib::AdaptedPathPayoff::ValuationData" = type { ptr, ptr, ptr, ptr, ptr, i64 }

; Function Attrs: mustprogress uwtable
define void @_ZNK8QuantLib17AdaptedPathPayoff5valueERKNS_6MatrixERKSt6vectorINS_6HandleINS_18YieldTermStructureEEESaIS7_EERNS_5ArrayESD_RS4_ISC_SaISC_EE(ptr noundef nonnull align 8 dereferenceable(8) %this, ptr noundef nonnull align 8 dereferenceable(24) %path, ptr noundef nonnull align 8 dereferenceable(24) %forwardTermStructures, ptr noundef nonnull align 8 dereferenceable(16) %payments, ptr noundef nonnull align 8 dereferenceable(16) %exercises, ptr noundef nonnull align 8 dereferenceable(24) %states) unnamed_addr #7 align 2 {
entry:
  %this.addr = alloca ptr, align 8
  %path.addr = alloca ptr, align 8
  %forwardTermStructures.addr = alloca ptr, align 8
  %payments.addr = alloca ptr, align 8
  %exercises.addr = alloca ptr, align 8
  %states.addr = alloca ptr, align 8
  %data = alloca %"class.QuantLib::AdaptedPathPayoff::ValuationData", align 8
  store ptr %this, ptr %this.addr, align 8, !tbaa !3
  store ptr %path, ptr %path.addr, align 8, !tbaa !3
  store ptr %forwardTermStructures, ptr %forwardTermStructures.addr, align 8, !tbaa !3
  store ptr %payments, ptr %payments.addr, align 8, !tbaa !3
  store ptr %exercises, ptr %exercises.addr, align 8, !tbaa !3
  store ptr %states, ptr %states.addr, align 8, !tbaa !3
  %this1 = load ptr, ptr %this.addr, align 8
  call void @llvm.lifetime.start.p0(i64 48, ptr %data) #15
  %0 = load ptr, ptr %path.addr, align 8, !tbaa !3
  %1 = load ptr, ptr %forwardTermStructures.addr, align 8, !tbaa !3
  %2 = load ptr, ptr %payments.addr, align 8, !tbaa !3
  %3 = load ptr, ptr %exercises.addr, align 8, !tbaa !3
  %4 = load ptr, ptr %states.addr, align 8, !tbaa !3
  call void @_ZN8QuantLib17AdaptedPathPayoff13ValuationDataC1ERKNS_6MatrixERKSt6vectorINS_6HandleINS_18YieldTermStructureEEESaIS8_EERNS_5ArrayESE_RS5_ISD_SaISD_EE(ptr noundef nonnull align 8 dereferenceable(48) %data, ptr noundef nonnull align 8 dereferenceable(24) %0, ptr noundef nonnull align 8 dereferenceable(24) %1, ptr noundef nonnull align 8 dereferenceable(16) %2, ptr noundef nonnull align 8 dereferenceable(16) %3, ptr noundef nonnull align 8 dereferenceable(24) %4)
  %vtable = load ptr, ptr %this1, align 8, !tbaa !7
  %vfn = getelementptr inbounds ptr, ptr %vtable, i64 7
  %5 = load ptr, ptr %vfn, align 8
  call void %5(ptr noundef nonnull align 8 dereferenceable(8) %this1, ptr noundef nonnull align 8 dereferenceable(48) %data)
  call void @llvm.lifetime.end.p0(i64 48, ptr %data) #15
  ret void
}