; Function Attrs: mustprogress uwtable
define void @_ZNK8QuantLib17AdaptedPathPayoff5valueERKNS_6MatrixERKSt6vectorINS_6HandleINS_18YieldTermStructureEEESaIS7_EERNS_5ArrayESD_RS4_ISC_SaISC_EE(ptr noundef nonnull align 8 dereferenceable(8) %this, ptr noundef nonnull align 8 dereferenceable(24) %path, ptr noundef nonnull align 8 dereferenceable(24) %forwardTermStructures, ptr noundef nonnull align 8 dereferenceable(16) %payments, ptr noundef nonnull align 8 dereferenceable(16) %exercises, ptr noundef nonnull align 8 dereferenceable(24) %states) unnamed_addr #6 align 2 {
entry:
  %data = alloca %"class.QuantLib::AdaptedPathPayoff::ValuationData", align 8
  call void @llvm.lifetime.start.p0(i64 48, ptr nonnull %data) #21
  call void @_ZN8QuantLib17AdaptedPathPayoff13ValuationDataC1ERKNS_6MatrixERKSt6vectorINS_6HandleINS_18YieldTermStructureEEESaIS8_EERNS_5ArrayESE_RS5_ISD_SaISD_EE(ptr noundef nonnull align 8 dereferenceable(48) %data, ptr noundef nonnull align 8 dereferenceable(24) %path, ptr noundef nonnull align 8 dereferenceable(24) %forwardTermStructures, ptr noundef nonnull align 8 dereferenceable(16) %payments, ptr noundef nonnull align 8 dereferenceable(16) %exercises, ptr noundef nonnull align 8 dereferenceable(24) %states)
  %vtable = load ptr, ptr %this, align 8, !tbaa !3
  %vfn = getelementptr inbounds i8, ptr %vtable, i64 56
  %0 = load ptr, ptr %vfn, align 8
  call void %0(ptr noundef nonnull align 8 dereferenceable(8) %this, ptr noundef nonnull align 8 dereferenceable(48) %data)
  call void @llvm.lifetime.end.p0(i64 48, ptr nonnull %data) #21
  ret void
}